target datalayout = "e-m:e-p270:32:32-p271:32:32-p272:64:64-i64:64-i128:128-f80:128-n8:16:32:64-S128"
target triple = "x86_64-pc-linux-gnu"

%struct.AVFilterContext = type { ptr, ptr, ptr, ptr, ptr, i32, ptr, ptr, i32, ptr, ptr, i32, i32, ptr, ptr, ptr, ptr, i32, ptr, i32, i32 }
%struct.MixContext = type { ptr, ptr, ptr, i32, i32, i32, ptr, float, float, i32, i32, i32, i32, i32, i32, i32, i32, [4 x i32], [4 x i32], [4 x ptr], ptr, ptr, ptr, %struct.FFFrameSync }
%struct.FFFrameSync = type { ptr, ptr, i32, %struct.AVRational, i64, ptr, ptr, i32, i32, i8, i8, ptr, i32, i32, i32, i32 }
%struct.AVRational = type { i32, i32 }

; Function Attrs: cold nounwind optsize uwtable
define internal void @uninit(ptr noundef %0) #0 {
  %2 = alloca ptr, align 8
  %3 = alloca ptr, align 8
  %4 = alloca i32, align 4
  store ptr %0, ptr %2, align 8, !tbaa !4
  call void @llvm.lifetime.start.p0(i64 8, ptr %3) #12
  %5 = load ptr, ptr %2, align 8, !tbaa !4
  %6 = getelementptr inbounds nuw %struct.AVFilterContext, ptr %5, i32 0, i32 9
  %7 = load ptr, ptr %6, align 8, !tbaa !9
  store ptr %7, ptr %3, align 8, !tbaa !22
  call void @llvm.lifetime.start.p0(i64 4, ptr %4) #12
  %8 = load ptr, ptr %3, align 8, !tbaa !22
  %9 = getelementptr inbounds nuw %struct.MixContext, ptr %8, i32 0, i32 23
  call void @ff_framesync_uninit(ptr noundef %9)
  %10 = load ptr, ptr %3, align 8, !tbaa !22
  %11 = getelementptr inbounds nuw %struct.MixContext, ptr %10, i32 0, i32 6
  call void @av_freep(ptr noundef %11)
  %12 = load ptr, ptr %3, align 8, !tbaa !22
  %13 = getelementptr inbounds nuw %struct.MixContext, ptr %12, i32 0, i32 20
  call void @av_freep(ptr noundef %13)
  %14 = load ptr, ptr %3, align 8, !tbaa !22
  %15 = getelementptr inbounds nuw %struct.MixContext, ptr %14, i32 0, i32 21
  call void @av_freep(ptr noundef %15)
  %16 = load ptr, ptr %3, align 8, !tbaa !22
  %17 = getelementptr inbounds nuw %struct.MixContext, ptr %16, i32 0, i32 10
  %18 = load i32, ptr %17, align 4, !tbaa !27
  %19 = icmp ne i32 %18, 0
  br i1 %19, label %20, label %58

20:                                               ; preds = %1
  store i32 0, ptr %4, align 4, !tbaa !42
  br label %21

21:                                               ; preds = %30, %20
  %22 = load i32, ptr %4, align 4, !tbaa !42
  %23 = icmp slt i32 %22, 4
  br i1 %23, label %24, label %33

24:                                               ; preds = %21
  %25 = load ptr, ptr %3, align 8, !tbaa !22
  %26 = getelementptr inbounds nuw %struct.MixContext, ptr %25, i32 0, i32 19
  %27 = load i32, ptr %4, align 4, !tbaa !42
  %28 = sext i32 %27 to i64
  %29 = getelementptr inbounds [4 x ptr], ptr %26, i64 0, i64 %28
  call void @av_freep(ptr noundef %29)
  br label %30

30:                                               ; preds = %24
  %31 = load i32, ptr %4, align 4, !tbaa !42
  %32 = add nsw i32 %31, 1
  store i32 %32, ptr %4, align 4, !tbaa !42
  br label %21, !llvm.loop !48

33:                                               ; preds = %21
  store i32 0, ptr %4, align 4, !tbaa !42
  br label %34

34:                                               ; preds = %54, %33
  %35 = load i32, ptr %4, align 4, !tbaa !42
  %36 = load ptr, ptr %3, align 8, !tbaa !22
  %37 = getelementptr inbounds nuw %struct.MixContext, ptr %36, i32 0, i32 11
  %38 = load i32, ptr %37, align 8, !tbaa !49
  %39 = icmp slt i32 %35, %38
  br i1 %39, label %40, label %45

40:                                               ; preds = %34
  %41 = load ptr, ptr %3, align 8, !tbaa !22
  %42 = getelementptr inbounds nuw %struct.MixContext, ptr %41, i32 0, i32 22
  %43 = load ptr, ptr %42, align 8, !tbaa !40
  %44 = icmp ne ptr %43, null
  br label %45

45:                                               ; preds = %40, %34
  %46 = phi i1 [ false, %34 ], [ %44, %40 ]
  br i1 %46, label %47, label %57

47:                                               ; preds = %45
  %48 = load ptr, ptr %3, align 8, !tbaa !22
  %49 = getelementptr inbounds nuw %struct.MixContext, ptr %48, i32 0, i32 22
  %50 = load ptr, ptr %49, align 8, !tbaa !40
  %51 = load i32, ptr %4, align 4, !tbaa !42
  %52 = sext i32 %51 to i64
  %53 = getelementptr inbounds ptr, ptr %50, i64 %52
  call void @av_frame_free(ptr noundef %53)
  br label %54

54:                                               ; preds = %47
  %55 = load i32, ptr %4, align 4, !tbaa !42
  %56 = add nsw i32 %55, 1
  store i32 %56, ptr %4, align 4, !tbaa !42
  br label %34, !llvm.loop !50

57:                                               ; preds = %45
  br label %58

58:                                               ; preds = %57, %1
  %59 = load ptr, ptr %3, align 8, !tbaa !22
  %60 = getelementptr inbounds nuw %struct.MixContext, ptr %59, i32 0, i32 22
  call void @av_freep(ptr noundef %60)
  call void @llvm.lifetime.end.p0(i64 4, ptr %4) #12
  call void @llvm.lifetime.end.p0(i64 8, ptr %3) #12
  ret void
}