; Function Attrs: cold nounwind optsize uwtable
define internal void @uninit(ptr noundef readonly captures(none) %0) #0 {
  %2 = getelementptr inbounds nuw i8, ptr %0, i64 72
  %3 = load ptr, ptr %2, align 8, !tbaa !4
  %4 = getelementptr inbounds nuw i8, ptr %3, i64 176
  tail call void @ff_framesync_uninit(ptr noundef nonnull %4) #12
  %5 = getelementptr inbounds nuw i8, ptr %3, i64 40
  tail call void @av_freep(ptr noundef nonnull %5) #12
  %6 = getelementptr inbounds nuw i8, ptr %3, i64 152
  tail call void @av_freep(ptr noundef nonnull %6) #12
  %7 = getelementptr inbounds nuw i8, ptr %3, i64 160
  tail call void @av_freep(ptr noundef nonnull %7) #12
  %8 = getelementptr inbounds nuw i8, ptr %3, i64 60
  %9 = load i32, ptr %8, align 4, !tbaa !23
  %.not = icmp eq i32 %9, 0
  br i1 %.not, label %.critedge, label %.preheader18

.preheader18:                                     ; preds = %1
  %10 = getelementptr inbounds nuw i8, ptr %3, i64 120
  br label %15

.preheader:                                       ; preds = %15
  %11 = getelementptr inbounds nuw i8, ptr %3, i64 168
  %12 = getelementptr inbounds nuw i8, ptr %3, i64 64
  %13 = load i32, ptr %12, align 8, !tbaa !43
  %14 = icmp sgt i32 %13, 0
  br i1 %14, label %.lr.ph, label %.critedge

15:                                               ; preds = %.preheader18, %15
  %indvars.iv = phi i64 [ 0, %.preheader18 ], [ %indvars.iv.next, %15 ]
  %16 = getelementptr inbounds nuw [4 x ptr], ptr %10, i64 0, i64 %indvars.iv
  tail call void @av_freep(ptr noundef nonnull %16) #12
  %indvars.iv.next = add nuw nsw i64 %indvars.iv, 1
  %exitcond.not = icmp eq i64 %indvars.iv.next, 4
  br i1 %exitcond.not, label %.preheader, label %15, !llvm.loop !44

.lr.ph:                                           ; preds = %.preheader, %18
  %indvars.iv23 = phi i64 [ %indvars.iv.next24, %18 ], [ 0, %.preheader ]
  %17 = load ptr, ptr %11, align 8, !tbaa !37
  %.not17 = icmp eq ptr %17, null
  br i1 %.not17, label %.critedge, label %18

18:                                               ; preds = %.lr.ph
  %19 = getelementptr inbounds nuw ptr, ptr %17, i64 %indvars.iv23
  tail call void @av_frame_free(ptr noundef nonnull %19) #12
  %indvars.iv.next24 = add nuw nsw i64 %indvars.iv23, 1
  %20 = load i32, ptr %12, align 8, !tbaa !43
  %21 = sext i32 %20 to i64
  %22 = icmp slt i64 %indvars.iv.next24, %21
  br i1 %22, label %.lr.ph, label %.critedge, !llvm.loop !45

.critedge:                                        ; preds = %18, %.lr.ph, %.preheader, %1
  %23 = getelementptr inbounds nuw i8, ptr %3, i64 168
  tail call void @av_freep(ptr noundef nonnull %23) #12
  ret void
}